; Function Attrs: nounwind uwtable
define dso_local void @ExecARInsertTriggers(ptr noundef %0, ptr noundef %1, ptr noundef %2, ptr noundef %3, ptr noundef captures(address_is_null) %4) local_unnamed_addr #0 {
  %6 = getelementptr inbounds nuw i8, ptr %1, i64 96
  %7 = load ptr, ptr %6, align 8
  %.not = icmp eq ptr %7, null
  br i1 %.not, label %12, label %8

8:                                                ; preds = %5
  %9 = getelementptr inbounds nuw i8, ptr %7, i64 13
  %10 = load i8, ptr %9, align 1, !range !4, !noundef !5
  %11 = trunc nuw i8 %10 to i1
  br i1 %11, label %.sink.split, label %12

12:                                               ; preds = %8, %5
  %.not12 = icmp eq ptr %4, null
  br i1 %.not12, label %17, label %13

13:                                               ; preds = %12
  %14 = getelementptr inbounds nuw i8, ptr %4, i64 3
  %15 = load i8, ptr %14, align 1, !range !4, !noundef !5
  %16 = trunc nuw i8 %15 to i1
  br i1 %16, label %.sink.split, label %17

.sink.split:                                      ; preds = %13, %8
  tail call fastcc void @AfterTriggerSaveEvent(ptr noundef %0, ptr noundef nonnull %1, ptr noundef null, ptr noundef null, i32 noundef 0, i1 noundef zeroext true, ptr noundef null, ptr noundef %2, ptr noundef %3, ptr noundef null, ptr noundef %4, i1 noundef zeroext false)
  br label %17

17:                                               ; preds = %.sink.split, %13, %12
  ret void
}